target datalayout = "e-m:e-p270:32:32-p271:32:32-p272:64:64-i64:64-i128:128-f80:128-n8:16:32:64-S128"
target triple = "x86_64-pc-linux-gnu"

%class.QString = type { %struct.QArrayDataPointer }
%struct.QArrayDataPointer = type { ptr, ptr, i64 }
%class.RtpStreamDialog = type { %class.WiresharkDialog.base, ptr, %struct._rtpstream_tapinfo, ptr, ptr, ptr, ptr, ptr, ptr, %class.QMenu, i8, %class.QList.1 }
%class.WiresharkDialog.base = type <{ %class.GeometryStateDialog, ptr, i8, [7 x i8], %class.QString, %class.QList, i32, i8 }>
%class.GeometryStateDialog = type { %class.QDialog, %class.QString }
%class.QDialog = type { %class.QWidget }
%class.QWidget = type { %class.QObject, %class.QPaintDevice.base, ptr }
%class.QObject = type { ptr, %class.QScopedPointer }
%class.QScopedPointer = type { ptr }
%class.QPaintDevice.base = type <{ ptr, i16 }>
%class.QList = type { %struct.QArrayDataPointer.0 }
%struct.QArrayDataPointer.0 = type { ptr, ptr, i64 }
%struct._rtpstream_tapinfo = type { ptr, ptr, ptr, ptr, i32, ptr, ptr, i32, i32, ptr, ptr, ptr, i32, i32 }
%class.QMenu = type { %class.QWidget }
%class.QList.1 = type { %struct.QArrayDataPointer.4 }
%struct.QArrayDataPointer.4 = type { ptr, ptr, i64 }
%class.Ui_RtpStreamDialog = type { ptr, ptr, ptr, ptr, ptr, ptr, ptr, ptr, ptr, ptr, ptr, ptr, ptr, ptr, ptr, ptr, ptr, ptr, ptr, ptr, ptr, ptr, ptr, ptr, ptr }
%struct.nstime_t = type { i64, i32 }
%class.QList.17 = type { %struct.QArrayDataPointer.20 }
%struct.QArrayDataPointer.20 = type { ptr, ptr, i64 }
%class.QTreeWidgetItemIterator = type <{ %class.QScopedPointer.12, ptr, %class.QFlags, [4 x i8] }>
%class.QScopedPointer.12 = type { ptr }
%class.QFlags = type { i32 }
%struct._rtpstream_id = type { %struct._address, i16, %struct._address, i16, i32 }
%struct._address = type { i32, i32, ptr, ptr }
%struct._rtpstream_info = type { %struct._rtpstream_id, i8, ptr, [256 x ptr], ptr, i32, i32, i32, i32, i32, i32, ptr, ptr, %struct.nstime_t, %struct.nstime_t, %struct.nstime_t, i16, i32, i32, %struct._tap_rtp_stat_t, i32, ptr }
%struct._tap_rtp_stat_t = type { i32, i32, i16, i64, i64, double, [300 x %struct._bw_history_item], i16, i16, i32, i32, double, double, double, double, double, double, double, double, double, double, double, double, double, double, double, double, double, double, double, i32, i16, i16, i32, i32, i32, i32, i16, i32, i32, i32 }
%struct._bw_history_item = type { double, i32 }
%class.RtpStreamTreeWidgetItem = type <{ %class.QTreeWidgetItem.base, [4 x i8], ptr, i32, [4 x i8] }>
%class.QTreeWidgetItem.base = type <{ ptr, i32, [4 x i8], %class.QList.13, ptr, ptr, ptr, %class.QList.17, %class.QFlags.21 }>
%class.QList.13 = type { %struct.QArrayDataPointer.16 }
%struct.QArrayDataPointer.16 = type { ptr, ptr, i64 }
%class.QFlags.21 = type { i32 }

; Function Attrs: mustprogress nounwind uwtable
define linkonce_odr noundef ptr @_ZNK23RtpStreamTreeWidgetItem10streamInfoEv(ptr noundef nonnull align 8 dereferenceable(108) %0) #5 comdat align 2 {
  %2 = alloca ptr, align 8
  store ptr %0, ptr %2, align 8
  %3 = load ptr, ptr %2, align 8
  %4 = getelementptr inbounds %class.RtpStreamTreeWidgetItem, ptr %3, i32 0, i32 2
  %5 = load ptr, ptr %4, align 8
  ret ptr %5
}

; Function Attrs: mustprogress nounwind uwtable
define linkonce_odr noundef ptr @_ZNK23QTreeWidgetItemIteratordeEv(ptr noundef nonnull align 8 dereferenceable(20) %0) #5 comdat align 2 {
  %2 = alloca ptr, align 8
  store ptr %0, ptr %2, align 8
  %3 = load ptr, ptr %2, align 8
  %4 = getelementptr inbounds %class.QTreeWidgetItemIterator, ptr %3, i32 0, i32 1
  %5 = load ptr, ptr %4, align 8
  ret ptr %5
}

; Function Attrs: mustprogress nounwind uwtable
define linkonce_odr void @_ZN6QFlagsIN23QTreeWidgetItemIterator12IteratorFlagEEC2ES1_(ptr noundef nonnull align 4 dereferenceable(4) %0, i32 noundef %1) unnamed_addr #5 comdat align 2 {
  %3 = alloca ptr, align 8
  %4 = alloca i32, align 4
  store ptr %0, ptr %3, align 8
  store i32 %1, ptr %4, align 4
  %5 = load ptr, ptr %3, align 8
  %6 = getelementptr inbounds %class.QFlags, ptr %5, i32 0, i32 0
  %7 = load i32, ptr %4, align 4
  store i32 %7, ptr %6, align 4
  ret void
}

; Function Attrs: mustprogress uwtable
define void @_ZN15RtpStreamDialog21setRtpStreamSelectionEP13_rtpstream_idb(ptr noundef nonnull align 8 dereferenceable(360) %0, ptr noundef %1, i1 noundef zeroext %2) #0 align 2 personality ptr @__gxx_personality_v0 {
  %4 = alloca ptr, align 8
  %5 = alloca ptr, align 8
  %6 = alloca i8, align 1
  %7 = alloca %class.QTreeWidgetItemIterator, align 8
  %8 = alloca %class.QFlags, align 4
  %9 = alloca ptr, align 8
  %10 = alloca i32, align 4
  %11 = alloca ptr, align 8
  %12 = alloca ptr, align 8
  store ptr %0, ptr %4, align 8
  store ptr %1, ptr %5, align 8
  %13 = zext i1 %2 to i8
  store i8 %13, ptr %6, align 1
  %14 = load ptr, ptr %4, align 8
  %15 = getelementptr inbounds %class.RtpStreamDialog, ptr %14, i32 0, i32 1
  %16 = load ptr, ptr %15, align 8
  %17 = getelementptr inbounds %class.Ui_RtpStreamDialog, ptr %16, i32 0, i32 18
  %18 = load ptr, ptr %17, align 8
  call void @_ZN6QFlagsIN23QTreeWidgetItemIterator12IteratorFlagEEC2ES1_(ptr noundef nonnull align 4 dereferenceable(4) %8, i32 noundef 0) #18
  %19 = getelementptr inbounds %class.QFlags, ptr %8, i32 0, i32 0
  %20 = load i32, ptr %19, align 4
  call void @_ZN23QTreeWidgetItemIteratorC1EP11QTreeWidget6QFlagsINS_12IteratorFlagEE(ptr noundef nonnull align 8 dereferenceable(20) %7, ptr noundef %18, i32 %20)
  br label %21

21:                                               ; preds = %53, %3
  %22 = invoke noundef ptr @_ZNK23QTreeWidgetItemIteratordeEv(ptr noundef nonnull align 8 dereferenceable(20) %7)
          to label %23 unwind label %46

23:                                               ; preds = %21
  %24 = icmp ne ptr %22, null
  br i1 %24, label %25, label %54

25:                                               ; preds = %23
  %26 = invoke noundef ptr @_ZNK23QTreeWidgetItemIteratordeEv(ptr noundef nonnull align 8 dereferenceable(20) %7)
          to label %27 unwind label %46

27:                                               ; preds = %25
  store ptr %26, ptr %11, align 8
  %28 = load ptr, ptr %11, align 8
  %29 = invoke noundef ptr @_ZNK23RtpStreamTreeWidgetItem10streamInfoEv(ptr noundef nonnull align 8 dereferenceable(108) %28)
          to label %30 unwind label %46

30:                                               ; preds = %27
  store ptr %29, ptr %12, align 8
  %31 = load ptr, ptr %12, align 8
  %32 = icmp ne ptr %31, null
  br i1 %32, label %33, label %51

33:                                               ; preds = %30
  %34 = load ptr, ptr %5, align 8
  %35 = load ptr, ptr %12, align 8
  %36 = getelementptr inbounds %struct._rtpstream_info, ptr %35, i32 0, i32 0
  %37 = invoke i32 @rtpstream_id_equal(ptr noundef %34, ptr noundef %36, i32 noundef 1)
          to label %38 unwind label %46

38:                                               ; preds = %33
  %39 = icmp ne i32 %37, 0
  br i1 %39, label %40, label %50

40:                                               ; preds = %38
  %41 = invoke noundef ptr @_ZNK23QTreeWidgetItemIteratordeEv(ptr noundef nonnull align 8 dereferenceable(20) %7)
          to label %42 unwind label %46

42:                                               ; preds = %40
  %43 = load i8, ptr %6, align 1
  %44 = trunc i8 %43 to i1
  invoke void @_ZN15QTreeWidgetItem11setSelectedEb(ptr noundef nonnull align 8 dereferenceable(92) %41, i1 noundef zeroext %44)
          to label %45 unwind label %46

45:                                               ; preds = %42
  br label %50

46:                                               ; preds = %51, %42, %40, %33, %27, %25, %21
  %47 = landingpad { ptr, i32 }
          cleanup
  %48 = extractvalue { ptr, i32 } %47, 0
  store ptr %48, ptr %9, align 8
  %49 = extractvalue { ptr, i32 } %47, 1
  store i32 %49, ptr %10, align 4
  call void @_ZN23QTreeWidgetItemIteratorD1Ev(ptr noundef nonnull align 8 dereferenceable(20) %7) #18
  br label %55

50:                                               ; preds = %45, %38
  br label %51

51:                                               ; preds = %50, %30
  %52 = invoke noundef nonnull align 8 dereferenceable(20) ptr @_ZN23QTreeWidgetItemIteratorppEv(ptr noundef nonnull align 8 dereferenceable(20) %7)
          to label %53 unwind label %46

53:                                               ; preds = %51
  br label %21, !llvm.loop !13

54:                                               ; preds = %23
  call void @_ZN23QTreeWidgetItemIteratorD1Ev(ptr noundef nonnull align 8 dereferenceable(20) %7) #18
  ret void

55:                                               ; preds = %46
  %56 = load ptr, ptr %9, align 8
  %57 = load i32, ptr %10, align 4
  %58 = insertvalue { ptr, i32 } poison, ptr %56, 0
  %59 = insertvalue { ptr, i32 } %58, i32 %57, 1
  resume { ptr, i32 } %59
}