; Function Attrs: mustprogress uwtable
define void @_ZN15RtpStreamDialog21setRtpStreamSelectionEP13_rtpstream_idb(ptr nocapture noundef nonnull readonly align 8 dereferenceable(360) %0, ptr noundef %1, i1 noundef zeroext %2) local_unnamed_addr #0 align 2 personality ptr @__gxx_personality_v0 {
  %4 = alloca %class.QTreeWidgetItemIterator, align 8
  %5 = getelementptr inbounds i8, ptr %0, i64 136
  %6 = load ptr, ptr %5, align 8
  %7 = getelementptr inbounds i8, ptr %6, i64 144
  %8 = load ptr, ptr %7, align 8
  call void @_ZN23QTreeWidgetItemIteratorC1EP11QTreeWidget6QFlagsINS_12IteratorFlagEE(ptr noundef nonnull align 8 dereferenceable(20) %4, ptr noundef %8, i32 0)
  %9 = getelementptr inbounds i8, ptr %4, i64 8
  br label %10

10:                                               ; preds = %22, %3
  %11 = load ptr, ptr %9, align 8
  %.not = icmp eq ptr %11, null
  br i1 %.not, label %24, label %12

12:                                               ; preds = %10
  %13 = getelementptr inbounds i8, ptr %11, i64 96
  %14 = load ptr, ptr %13, align 8
  %.not7 = icmp eq ptr %14, null
  br i1 %.not7, label %22, label %15

15:                                               ; preds = %12
  %16 = invoke i32 @rtpstream_id_equal(ptr noundef %1, ptr noundef nonnull %14, i32 noundef 1)
          to label %17 unwind label %20

17:                                               ; preds = %15
  %.not8 = icmp eq i32 %16, 0
  br i1 %.not8, label %22, label %18

18:                                               ; preds = %17
  %19 = load ptr, ptr %9, align 8
  invoke void @_ZN15QTreeWidgetItem11setSelectedEb(ptr noundef nonnull align 8 dereferenceable(92) %19, i1 noundef zeroext %2)
          to label %22 unwind label %20

20:                                               ; preds = %22, %18, %15
  %21 = landingpad { ptr, i32 }
          cleanup
  call void @_ZN23QTreeWidgetItemIteratorD1Ev(ptr noundef nonnull align 8 dereferenceable(20) %4) #18
  resume { ptr, i32 } %21

22:                                               ; preds = %17, %18, %12
  %23 = invoke noundef nonnull align 8 dereferenceable(20) ptr @_ZN23QTreeWidgetItemIteratorppEv(ptr noundef nonnull align 8 dereferenceable(20) %4)
          to label %10 unwind label %20, !llvm.loop !48

24:                                               ; preds = %10
  call void @_ZN23QTreeWidgetItemIteratorD1Ev(ptr noundef nonnull align 8 dereferenceable(20) %4) #18
  ret void
}